; Function Attrs: mustprogress uwtable
define hidden void @_ZN12mpfx_manager3setER4mpfxj(ptr noundef nonnull align 8 dereferenceable(85) %0, ptr noundef nonnull align 4 captures(none) dereferenceable(4) %1, i32 noundef %2) local_unnamed_addr #3 align 2 {
  %4 = icmp eq i32 %2, 0
  %5 = load i32, ptr %1, align 4
  %.not.i.i = icmp ult i32 %5, 2
  br i1 %4, label %6, label %40

6:                                                ; preds = %3
  br i1 %.not.i.i, label %_ZN12mpfx_manager5resetER4mpfx.exit, label %7

7:                                                ; preds = %6
  %8 = lshr i32 %5, 1
  %9 = tail call noundef zeroext i1 @_ZN6memory16is_out_of_memoryEv()
  br i1 %9, label %_ZN6id_gen7recycleEj.exit.i.i, label %10

10:                                               ; preds = %7
  %11 = getelementptr inbounds nuw i8, ptr %0, i64 40
  %12 = load ptr, ptr %11, align 8, !tbaa !3
  %13 = icmp eq ptr %12, null
  br i1 %13, label %20, label %14

14:                                               ; preds = %10
  %15 = getelementptr inbounds i8, ptr %12, i64 -4
  %16 = load i32, ptr %15, align 4, !tbaa !22
  %17 = getelementptr inbounds i8, ptr %12, i64 -8
  %18 = load i32, ptr %17, align 4, !tbaa !22
  %19 = icmp eq i32 %16, %18
  br i1 %19, label %20, label %_ZN6vectorIjLb0EjE9push_backERKj.exit.i.i.i

20:                                               ; preds = %14, %10
  tail call void @_ZN6vectorIjLb0EjE13expand_vectorEv(ptr noundef nonnull align 8 dereferenceable(8) %11)
  %.pre.i.i.i.i = load ptr, ptr %11, align 8, !tbaa !3
  %.phi.trans.insert.i.i.i.i = getelementptr inbounds i8, ptr %.pre.i.i.i.i, i64 -4
  %.pre2.i.i.i.i = load i32, ptr %.phi.trans.insert.i.i.i.i, align 4, !tbaa !22
  br label %_ZN6vectorIjLb0EjE9push_backERKj.exit.i.i.i

_ZN6vectorIjLb0EjE9push_backERKj.exit.i.i.i:      ; preds = %20, %14
  %21 = phi i32 [ %.pre2.i.i.i.i, %20 ], [ %16, %14 ]
  %22 = phi ptr [ %.pre.i.i.i.i, %20 ], [ %12, %14 ]
  %23 = getelementptr inbounds i8, ptr %22, i64 -4
  %24 = zext i32 %21 to i64
  %25 = getelementptr inbounds nuw i32, ptr %22, i64 %24
  store i32 %8, ptr %25, align 4, !tbaa !22
  %26 = add i32 %21, 1
  store i32 %26, ptr %23, align 4, !tbaa !22
  br label %_ZN6id_gen7recycleEj.exit.i.i

_ZN6id_gen7recycleEj.exit.i.i:                    ; preds = %_ZN6vectorIjLb0EjE9push_backERKj.exit.i.i.i, %7
  %27 = getelementptr inbounds nuw i8, ptr %0, i64 16
  %28 = load ptr, ptr %27, align 8, !tbaa !3
  %29 = load i32, ptr %1, align 4
  %30 = lshr i32 %29, 1
  %31 = getelementptr inbounds nuw i8, ptr %0, i64 8
  %32 = load i32, ptr %31, align 8, !tbaa !19
  %33 = mul i32 %30, %32
  %34 = zext i32 %33 to i64
  %35 = getelementptr inbounds nuw i32, ptr %28, i64 %34
  %.not10.i.i = icmp eq i32 %32, 0
  br i1 %.not10.i.i, label %_ZN12mpfx_manager5resetER4mpfx.exit, label %.lr.ph.i.i

.lr.ph.i.i:                                       ; preds = %_ZN6id_gen7recycleEj.exit.i.i, %.lr.ph.i.i
  %indvars.iv.i.i = phi i64 [ %indvars.iv.next.i.i, %.lr.ph.i.i ], [ 0, %_ZN6id_gen7recycleEj.exit.i.i ]
  %36 = getelementptr inbounds nuw i32, ptr %35, i64 %indvars.iv.i.i
  store i32 0, ptr %36, align 4, !tbaa !22
  %indvars.iv.next.i.i = add nuw nsw i64 %indvars.iv.i.i, 1
  %37 = load i32, ptr %31, align 8, !tbaa !19
  %38 = zext i32 %37 to i64
  %39 = icmp samesign ult i64 %indvars.iv.next.i.i, %38
  br i1 %39, label %.lr.ph.i.i, label %_ZN12mpfx_manager5resetER4mpfx.exit, !llvm.loop !26

_ZN12mpfx_manager5resetER4mpfx.exit:              ; preds = %.lr.ph.i.i, %6, %_ZN6id_gen7recycleEj.exit.i.i
  store i32 0, ptr %1, align 4
  br label %77

40:                                               ; preds = %3
  br i1 %.not.i.i, label %41, label %_ZN12mpfx_manager18allocate_if_neededER4mpfx.exit

41:                                               ; preds = %40
  %42 = getelementptr inbounds nuw i8, ptr %0, i64 32
  %43 = getelementptr inbounds nuw i8, ptr %0, i64 40
  %44 = load ptr, ptr %43, align 8, !tbaa !3
  %45 = icmp eq ptr %44, null
  br i1 %45, label %_ZNK6vectorIjLb0EjE5emptyEv.exit.thread.i.i.i, label %_ZNK6vectorIjLb0EjE5emptyEv.exit.i.i.i

_ZNK6vectorIjLb0EjE5emptyEv.exit.i.i.i:           ; preds = %41
  %46 = getelementptr inbounds i8, ptr %44, i64 -4
  %47 = load i32, ptr %46, align 4, !tbaa !22
  %48 = icmp eq i32 %47, 0
  br i1 %48, label %_ZNK6vectorIjLb0EjE5emptyEv.exit.thread.i.i.i, label %_ZN6vectorIjLb0EjE4backEv.exit.i.i.i

_ZNK6vectorIjLb0EjE5emptyEv.exit.thread.i.i.i:    ; preds = %_ZNK6vectorIjLb0EjE5emptyEv.exit.i.i.i, %41
  %49 = load i32, ptr %42, align 8, !tbaa !9
  %50 = add i32 %49, 1
  store i32 %50, ptr %42, align 8, !tbaa !9
  br label %_ZN12mpfx_manager8allocateER4mpfx.exit.i

_ZN6vectorIjLb0EjE4backEv.exit.i.i.i:             ; preds = %_ZNK6vectorIjLb0EjE5emptyEv.exit.i.i.i
  %51 = add i32 %47, -1
  %52 = zext i32 %51 to i64
  %53 = getelementptr inbounds nuw i32, ptr %44, i64 %52
  %54 = load i32, ptr %53, align 4, !tbaa !22
  store i32 %51, ptr %46, align 4, !tbaa !22
  br label %_ZN12mpfx_manager8allocateER4mpfx.exit.i

_ZN12mpfx_manager8allocateER4mpfx.exit.i:         ; preds = %_ZN6vectorIjLb0EjE4backEv.exit.i.i.i, %_ZNK6vectorIjLb0EjE5emptyEv.exit.thread.i.i.i
  %.0.i.i.i = phi i32 [ %49, %_ZNK6vectorIjLb0EjE5emptyEv.exit.thread.i.i.i ], [ %54, %_ZN6vectorIjLb0EjE4backEv.exit.i.i.i ]
  tail call void @_ZN12mpfx_manager15ensure_capacityEj(ptr noundef nonnull align 8 dereferenceable(85) %0, i32 noundef %.0.i.i.i)
  %55 = load i32, ptr %1, align 4
  %56 = shl i32 %.0.i.i.i, 1
  %57 = and i32 %55, 1
  %58 = or disjoint i32 %57, %56
  br label %_ZN12mpfx_manager18allocate_if_neededER4mpfx.exit

_ZN12mpfx_manager18allocate_if_neededER4mpfx.exit: ; preds = %40, %_ZN12mpfx_manager8allocateER4mpfx.exit.i
  %59 = phi i32 [ %5, %40 ], [ %58, %_ZN12mpfx_manager8allocateER4mpfx.exit.i ]
  %60 = and i32 %59, -2
  store i32 %60, ptr %1, align 4
  %61 = getelementptr inbounds nuw i8, ptr %0, i64 16
  %62 = load ptr, ptr %61, align 8, !tbaa !3
  %63 = lshr i32 %59, 1
  %64 = getelementptr inbounds nuw i8, ptr %0, i64 8
  %65 = load i32, ptr %64, align 8, !tbaa !19
  %66 = mul i32 %65, %63
  %67 = zext i32 %66 to i64
  %68 = getelementptr inbounds nuw i32, ptr %62, i64 %67
  %.not = icmp eq i32 %65, 0
  br i1 %.not, label %._crit_edge, label %.lr.ph

._crit_edge:                                      ; preds = %.lr.ph, %_ZN12mpfx_manager18allocate_if_neededER4mpfx.exit
  %69 = getelementptr inbounds nuw i8, ptr %0, i64 4
  %70 = load i32, ptr %69, align 4, !tbaa !18
  %71 = zext i32 %70 to i64
  %72 = getelementptr inbounds nuw i32, ptr %68, i64 %71
  store i32 %2, ptr %72, align 4, !tbaa !22
  br label %77

.lr.ph:                                           ; preds = %_ZN12mpfx_manager18allocate_if_neededER4mpfx.exit, %.lr.ph
  %indvars.iv = phi i64 [ %indvars.iv.next, %.lr.ph ], [ 0, %_ZN12mpfx_manager18allocate_if_neededER4mpfx.exit ]
  %73 = getelementptr inbounds nuw i32, ptr %68, i64 %indvars.iv
  store i32 0, ptr %73, align 4, !tbaa !22
  %indvars.iv.next = add nuw nsw i64 %indvars.iv, 1
  %74 = load i32, ptr %64, align 8, !tbaa !19
  %75 = zext i32 %74 to i64
  %76 = icmp samesign ult i64 %indvars.iv.next, %75
  br i1 %76, label %.lr.ph, label %._crit_edge, !llvm.loop !25

77:                                               ; preds = %._crit_edge, %_ZN12mpfx_manager5resetER4mpfx.exit
  ret void
}